(dp1
S'rating'
p2
S'FLOAT8'
p3
sS'master'
p4
S'INTEGER REFERENCES plugin_wiki_rating(id) ON DELETE CASCADE'
p5
sS'id'
p6
S'SERIAL PRIMARY KEY'
p7
sS'created_by'
p8
S'INTEGER REFERENCES auth_user(id) ON DELETE CASCADE'
p9
s.