(dp1
S'modified_by'
p2
S'INTEGER REFERENCES auth_user(id) ON DELETE CASCADE'
p3
sS'name'
p4
S'VARCHAR(512)'
p5
sS'links'
p6
S'INTEGER'
p7
sS'is_active'
p8
S'CHAR(1)'
p9
sS'created_by'
p10
S'INTEGER REFERENCES auth_user(id) ON DELETE CASCADE'
p11
sS'created_on'
p12
S'TIMESTAMP'
p13
sS'modified_on'
p14
S'TIMESTAMP'
p15
sS'id'
p16
S'SERIAL PRIMARY KEY'
p17
s.