(dp1
S'body'
p2
S'VARCHAR(512)'
p3
sS'modified_by'
p4
S'INTEGER REFERENCES auth_user(id) ON DELETE CASCADE'
p5
sS'is_active'
p6
S'CHAR(1)'
p7
sS'tablename'
p8
S'VARCHAR(512)'
p9
sS'created_by'
p10
S'INTEGER REFERENCES auth_user(id) ON DELETE CASCADE'
p11
sS'modified_on'
p12
S'TIMESTAMP'
p13
sS'created_on'
p14
S'TIMESTAMP'
p15
sS'record_id'
p16
S'INTEGER'
p17
sS'id'
p18
S'SERIAL PRIMARY KEY'
p19
s.