(dp1
S'categoria'
p2
S'INTEGER REFERENCES categoria(id) ON DELETE CASCADE'
p3
sS'modified_by'
p4
S'INTEGER REFERENCES auth_user(id) ON DELETE CASCADE'
p5
sS'description'
p6
S'TEXT'
p7
sS'title'
p8
S'CHAR(512)'
p9
sS'is_active'
p10
S'CHAR(1)'
p11
sS'created_by'
p12
S'INTEGER REFERENCES auth_user(id) ON DELETE CASCADE'
p13
sS'created_on'
p14
S'TIMESTAMP'
p15
sS'link'
p16
S'CHAR(512)'
p17
sS'modified_on'
p18
S'TIMESTAMP'
p19
sS'id'
p20
S'INTEGER PRIMARY KEY AUTOINCREMENT'
p21
s.