(dp1
S'modified_by'
p2
S'INTEGER REFERENCES auth_user(id) ON DELETE CASCADE'
p3
sS'name'
p4
S'CHAR(512)'
p5
sS'tablename'
p6
S'CHAR(512)'
p7
sS'is_active'
p8
S'CHAR(1)'
p9
sS'created_by'
p10
S'INTEGER REFERENCES auth_user(id) ON DELETE CASCADE'
p11
sS'filename'
p12
S'CHAR(512)'
p13
sS'modified_on'
p14
S'TIMESTAMP'
p15
sS'created_on'
p16
S'TIMESTAMP'
p17
sS'record_id'
p18
S'INTEGER'
p19
sS'id'
p20
S'INTEGER PRIMARY KEY AUTOINCREMENT'
p21
s.